Certificate:
    Data:
        Version: 3 (0x2)
        Serial Number: 1 (0x1)
        Signature Algorithm: sha256WithRSAEncryption
        Issuer: O=Test Org, CN=Test Org rauc CA Development
        Validity
            Not Before: Jan  1 00:00:00 1970 GMT
            Not After : Dec 31 23:59:59 9999 GMT
        Subject: O=Test Org, CN=Test Org rauc CA Development
        Subject Public Key Info:
            Public Key Algorithm: rsaEncryption
                RSA Public-Key: (2048 bit)
                Modulus:
                    00:ac:a0:44:0e:00:c0:2c:9f:04:29:a4:b9:96:44:
                    87:57:9c:15:0d:70:eb:cf:67:fa:d8:9d:78:b5:55:
                    84:61:f8:80:d7:17:5d:43:c5:a1:f6:be:6f:ae:05:
                    4f:74:81:8a:5e:48:c4:dc:12:97:8a:d1:3b:ed:f1:
                    69:27:0a:81:88:ea:02:7a:86:01:64:43:b4:28:20:
                    76:0b:28:07:37:ec:ca:2b:23:53:d9:33:47:c7:7e:
                    b9:35:cd:c4:3f:ff:87:27:3b:1c:cd:ec:0e:8b:2c:
                    d1:4d:71:2c:ab:57:6a:d1:37:33:e5:89:dc:26:f2:
                    b5:18:96:31:72:42:ec:b6:fd:d1:b4:c0:58:f1:7b:
                    ae:e9:53:8d:bb:7a:3f:44:e5:55:54:80:e6:1f:9a:
                    53:ae:7f:a3:2d:72:48:73:77:d4:fb:98:ba:58:47:
                    cc:1d:13:ed:6b:5c:c1:14:7d:0e:c2:0d:2d:c6:67:
                    5e:e6:9c:bb:f6:45:2b:c2:fb:f2:2d:07:54:de:78:
                    13:99:05:da:2e:ca:35:5a:46:e7:7d:89:40:d0:28:
                    e1:50:c0:df:75:77:bf:70:cd:64:13:60:32:93:96:
                    81:db:01:28:35:b3:5f:1b:18:0e:7f:29:0c:cc:cf:
                    ae:90:a5:a0:e7:0f:f4:be:94:73:96:00:9a:58:bb:
                    30:cb
                Exponent: 65537 (0x10001)
        X509v3 extensions:
            X509v3 Subject Key Identifier: 
                94:28:58:88:BC:97:EC:99:35:6B:39:E8:6C:AF:C0:60:7B:0C:A2:AB
            X509v3 Authority Key Identifier: 
                keyid:94:28:58:88:BC:97:EC:99:35:6B:39:E8:6C:AF:C0:60:7B:0C:A2:AB
                DirName:/O=Test Org/CN=Test Org rauc CA Development
                serial:01

            X509v3 Basic Constraints: 
                CA:TRUE
    Signature Algorithm: sha256WithRSAEncryption
         8b:af:d6:cb:a9:75:75:4b:13:2a:55:33:6d:b2:02:20:1a:b7:
         b5:d8:cb:b1:59:40:fa:7a:7b:34:eb:47:7c:5e:34:43:fd:21:
         4c:02:d2:d4:b7:b0:0e:c8:e0:c8:61:af:31:c3:70:89:8a:13:
         b7:df:4d:ae:39:bf:37:e0:62:1b:f6:15:0f:84:14:74:34:a5:
         63:e7:7f:e2:a9:e4:f6:51:8d:91:41:de:53:0a:52:a4:5e:a5:
         36:a4:4a:b9:d4:22:5a:59:e3:39:20:67:4b:6e:32:b4:0c:c6:
         98:f6:2b:8a:23:4d:82:62:06:f1:c1:99:6a:2c:45:60:92:ac:
         c4:b6:0c:48:da:43:59:9d:54:ae:f0:8b:48:d4:89:38:16:9a:
         5f:d0:76:7f:0f:45:75:e7:c4:a6:76:92:d7:71:84:48:3d:3c:
         91:56:5f:61:57:cd:93:a9:e5:a6:40:7b:e4:c0:b0:35:3a:14:
         f1:dc:76:11:55:ab:f4:66:28:dd:43:13:c9:a6:aa:69:be:d0:
         a4:6c:24:21:91:15:cd:51:97:fc:57:de:8a:b2:56:8a:35:e3:
         c1:91:de:2b:de:a7:62:f2:e0:23:c3:0e:a1:7b:db:26:58:6c:
         38:0d:b2:9f:f3:8f:f8:ea:f1:d3:d3:07:8e:81:45:06:06:9a:
         ec:72:23:e7
-----BEGIN CERTIFICATE-----
MIIDhjCCAm6gAwIBAgIBATANBgkqhkiG9w0BAQsFADA6MREwDwYDVQQKDAhUZXN0
IE9yZzElMCMGA1UEAwwcVGVzdCBPcmcgcmF1YyBDQSBEZXZlbG9wbWVudDAgFw03
MDAxMDEwMDAwMDBaGA85OTk5MTIzMTIzNTk1OVowOjERMA8GA1UECgwIVGVzdCBP
cmcxJTAjBgNVBAMMHFRlc3QgT3JnIHJhdWMgQ0EgRGV2ZWxvcG1lbnQwggEiMA0G
CSqGSIb3DQEBAQUAA4IBDwAwggEKAoIBAQCsoEQOAMAsnwQppLmWRIdXnBUNcOvP
Z/rYnXi1VYRh+IDXF11DxaH2vm+uBU90gYpeSMTcEpeK0Tvt8WknCoGI6gJ6hgFk
Q7QoIHYLKAc37MorI1PZM0fHfrk1zcQ//4cnOxzN7A6LLNFNcSyrV2rRNzPlidwm
8rUYljFyQuy2/dG0wFjxe67pU427ej9E5VVUgOYfmlOuf6Mtckhzd9T7mLpYR8wd
E+1rXMEUfQ7CDS3GZ17mnLv2RSvC+/ItB1TeeBOZBdouyjVaRud9iUDQKOFQwN91
d79wzWQTYDKTloHbASg1s18bGA5/KQzMz66QpaDnD/S+lHOWAJpYuzDLAgMBAAGj
gZQwgZEwHQYDVR0OBBYEFJQoWIi8l+yZNWs56GyvwGB7DKKrMGIGA1UdIwRbMFmA
FJQoWIi8l+yZNWs56GyvwGB7DKKroT6kPDA6MREwDwYDVQQKDAhUZXN0IE9yZzEl
MCMGA1UEAwwcVGVzdCBPcmcgcmF1YyBDQSBEZXZlbG9wbWVudIIBATAMBgNVHRME
BTADAQH/MA0GCSqGSIb3DQEBCwUAA4IBAQCLr9bLqXV1SxMqVTNtsgIgGre12Mux
WUD6ens060d8XjRD/SFMAtLUt7AOyODIYa8xw3CJihO3302uOb834GIb9hUPhBR0
NKVj53/iqeT2UY2RQd5TClKkXqU2pEq51CJaWeM5IGdLbjK0DMaY9iuKI02CYgbx
wZlqLEVgkqzEtgxI2kNZnVSu8ItI1Ik4Fppf0HZ/D0V158SmdpLXcYRIPTyRVl9h
V82TqeWmQHvkwLA1OhTx3HYRVav0ZijdQxPJpqppvtCkbCQhkRXNUZf8V96KslaK
NePBkd4r3qdi8uAjww6he9smWGw4DbKf84/46vHT0weOgUUGBprsciPn
-----END CERTIFICATE-----
